#include <math.h>
#include <stdio.h>
#include <stdlib.h>
#include <string.h>

char rec[200];
int main()
{
    char s[10000];
    int i,j,l,t,k,n;
    scanf("%d\n",&n);
    for(j=0;j<n;j++)
    {
     scanf("%s",s);
     for(i=0;i<200;i++)
      rec[i]=0;
     l=strlen(s);
     for(i=0;i<l;i++)
      rec[s[i]]++;
     t=0;
     for(i=0;i<l;i++)
      if(rec[s[i]]==1)
      {
        printf("%c\n",s[i]);
        t=1;
        break;
      }
     if(t==0) printf("no\n");
    }
    scanf("%d",&i);
    return 0;
}
      
